; Function Attrs: null_pointer_is_valid sspstrong uwtable
define void @fvalue_set_ether(ptr noundef %0, ptr noundef %1) local_unnamed_addr #0 {
  %3 = tail call ptr @g_bytes_new(ptr noundef %1, i64 noundef 6)
  %4 = load ptr, ptr %0, align 8
  %5 = getelementptr inbounds nuw i8, ptr %4, i64 112
  %6 = load ptr, ptr %5, align 8
  tail call void %6(ptr noundef %0, ptr noundef %3)
  tail call void @g_bytes_unref(ptr noundef %3)
  ret void
}